; Function Attrs: mustprogress uwtable
define internal void @_ZNK12_GLOBAL__N_116itanium_demangle15TransformedType9printLeftERNS0_12OutputBufferE(ptr noundef nonnull readonly align 8 captures(none) dereferenceable(40) %0, ptr noundef nonnull align 8 dereferenceable(44) %1) unnamed_addr #2 align 2 {
  %3 = getelementptr inbounds nuw i8, ptr %0, i64 16
  %.sroa.0.0.copyload = load ptr, ptr %3, align 8, !tbaa !219
  %.sroa.2.0..sroa_idx = getelementptr inbounds nuw i8, ptr %0, i64 24
  %.sroa.2.0.copyload = load i64, ptr %.sroa.2.0..sroa_idx, align 8, !tbaa !220
  %.not.i = icmp eq i64 %.sroa.2.0.copyload, 0
  %.phi.trans.insert = getelementptr inbounds nuw i8, ptr %1, i64 16
  %.pre = load i64, ptr %.phi.trans.insert, align 8, !tbaa !224
  br i1 %.not.i, label %_ZN12_GLOBAL__N_116itanium_demangle12OutputBufferpLENSt3__117basic_string_viewIcNS2_11char_traitsIcEEEE.exit, label %4

4:                                                ; preds = %2
  %5 = add i64 %.pre, %.sroa.2.0.copyload
  %6 = getelementptr inbounds nuw i8, ptr %1, i64 24
  %7 = load i64, ptr %6, align 8, !tbaa !225
  %8 = icmp ugt i64 %5, %7
  br i1 %8, label %9, label %._ZN12_GLOBAL__N_116itanium_demangle12OutputBuffer4growEm.exit_crit_edge.i

._ZN12_GLOBAL__N_116itanium_demangle12OutputBuffer4growEm.exit_crit_edge.i: ; preds = %4
  %.phi.trans.insert.i = getelementptr inbounds nuw i8, ptr %1, i64 8
  %.pre.i = load ptr, ptr %.phi.trans.insert.i, align 8, !tbaa !222
  br label %_ZN12_GLOBAL__N_116itanium_demangle12OutputBuffer4growEm.exit.i

9:                                                ; preds = %4
  %10 = add i64 %5, 992
  %11 = shl i64 %7, 1
  %spec.select.i.i = tail call i64 @llvm.umax.i64(i64 %11, i64 %10)
  store i64 %spec.select.i.i, ptr %6, align 8, !tbaa !225
  %12 = getelementptr inbounds nuw i8, ptr %1, i64 8
  %13 = load ptr, ptr %12, align 8, !tbaa !222
  %14 = tail call ptr @realloc(ptr noundef %13, i64 noundef %spec.select.i.i) #34
  store ptr %14, ptr %12, align 8, !tbaa !222
  %15 = icmp eq ptr %14, null
  br i1 %15, label %16, label %._ZN12_GLOBAL__N_116itanium_demangle12OutputBuffer4growEm.exit_crit_edge4.i

._ZN12_GLOBAL__N_116itanium_demangle12OutputBuffer4growEm.exit_crit_edge4.i: ; preds = %9
  %.pre5.i = load i64, ptr %.phi.trans.insert, align 8, !tbaa !224
  br label %_ZN12_GLOBAL__N_116itanium_demangle12OutputBuffer4growEm.exit.i

16:                                               ; preds = %9
  tail call void @abort() #33
  unreachable

_ZN12_GLOBAL__N_116itanium_demangle12OutputBuffer4growEm.exit.i: ; preds = %._ZN12_GLOBAL__N_116itanium_demangle12OutputBuffer4growEm.exit_crit_edge4.i, %._ZN12_GLOBAL__N_116itanium_demangle12OutputBuffer4growEm.exit_crit_edge.i
  %17 = phi i64 [ %.pre, %._ZN12_GLOBAL__N_116itanium_demangle12OutputBuffer4growEm.exit_crit_edge.i ], [ %.pre5.i, %._ZN12_GLOBAL__N_116itanium_demangle12OutputBuffer4growEm.exit_crit_edge4.i ]
  %18 = phi ptr [ %.pre.i, %._ZN12_GLOBAL__N_116itanium_demangle12OutputBuffer4growEm.exit_crit_edge.i ], [ %14, %._ZN12_GLOBAL__N_116itanium_demangle12OutputBuffer4growEm.exit_crit_edge4.i ]
  %19 = getelementptr inbounds nuw i8, ptr %18, i64 %17
  tail call void @llvm.memcpy.p0.p0.i64(ptr align 1 %19, ptr readonly align 1 %.sroa.0.0.copyload, i64 %.sroa.2.0.copyload, i1 false)
  %20 = load i64, ptr %.phi.trans.insert, align 8, !tbaa !224
  %21 = add i64 %20, %.sroa.2.0.copyload
  store i64 %21, ptr %.phi.trans.insert, align 8, !tbaa !224
  br label %_ZN12_GLOBAL__N_116itanium_demangle12OutputBufferpLENSt3__117basic_string_viewIcNS2_11char_traitsIcEEEE.exit

_ZN12_GLOBAL__N_116itanium_demangle12OutputBufferpLENSt3__117basic_string_viewIcNS2_11char_traitsIcEEEE.exit: ; preds = %2, %_ZN12_GLOBAL__N_116itanium_demangle12OutputBuffer4growEm.exit.i
  %22 = phi i64 [ %21, %_ZN12_GLOBAL__N_116itanium_demangle12OutputBuffer4growEm.exit.i ], [ %.pre, %2 ]
  %23 = getelementptr inbounds nuw i8, ptr %1, i64 16
  %24 = add i64 %22, 1
  %25 = getelementptr inbounds nuw i8, ptr %1, i64 24
  %26 = load i64, ptr %25, align 8, !tbaa !225
  %27 = icmp ugt i64 %24, %26
  br i1 %27, label %28, label %._ZN12_GLOBAL__N_116itanium_demangle12OutputBuffer4growEm.exit_crit_edge.i5

._ZN12_GLOBAL__N_116itanium_demangle12OutputBuffer4growEm.exit_crit_edge.i5: ; preds = %_ZN12_GLOBAL__N_116itanium_demangle12OutputBufferpLENSt3__117basic_string_viewIcNS2_11char_traitsIcEEEE.exit
  %.phi.trans.insert.i6 = getelementptr inbounds nuw i8, ptr %1, i64 8
  %.pre.i7 = load ptr, ptr %.phi.trans.insert.i6, align 8, !tbaa !222
  br label %_ZN12_GLOBAL__N_116itanium_demangle12OutputBufferpLEc.exit

28:                                               ; preds = %_ZN12_GLOBAL__N_116itanium_demangle12OutputBufferpLENSt3__117basic_string_viewIcNS2_11char_traitsIcEEEE.exit
  %29 = add i64 %22, 993
  %30 = shl i64 %26, 1
  %spec.select.i.i9 = tail call i64 @llvm.umax.i64(i64 %30, i64 %29)
  store i64 %spec.select.i.i9, ptr %25, align 8, !tbaa !225
  %31 = getelementptr inbounds nuw i8, ptr %1, i64 8
  %32 = load ptr, ptr %31, align 8, !tbaa !222
  %33 = tail call ptr @realloc(ptr noundef %32, i64 noundef %spec.select.i.i9) #34
  store ptr %33, ptr %31, align 8, !tbaa !222
  %34 = icmp eq ptr %33, null
  br i1 %34, label %35, label %._ZN12_GLOBAL__N_116itanium_demangle12OutputBuffer4growEm.exit_crit_edge1.i

._ZN12_GLOBAL__N_116itanium_demangle12OutputBuffer4growEm.exit_crit_edge1.i: ; preds = %28
  %.pre2.i = load i64, ptr %23, align 8, !tbaa !224
  %.pre3.i = add i64 %.pre2.i, 1
  br label %_ZN12_GLOBAL__N_116itanium_demangle12OutputBufferpLEc.exit

35:                                               ; preds = %28
  tail call void @abort() #33
  unreachable

_ZN12_GLOBAL__N_116itanium_demangle12OutputBufferpLEc.exit: ; preds = %._ZN12_GLOBAL__N_116itanium_demangle12OutputBuffer4growEm.exit_crit_edge.i5, %._ZN12_GLOBAL__N_116itanium_demangle12OutputBuffer4growEm.exit_crit_edge1.i
  %.pre-phi.i = phi i64 [ %.pre3.i, %._ZN12_GLOBAL__N_116itanium_demangle12OutputBuffer4growEm.exit_crit_edge1.i ], [ %24, %._ZN12_GLOBAL__N_116itanium_demangle12OutputBuffer4growEm.exit_crit_edge.i5 ]
  %36 = phi i64 [ %.pre2.i, %._ZN12_GLOBAL__N_116itanium_demangle12OutputBuffer4growEm.exit_crit_edge1.i ], [ %22, %._ZN12_GLOBAL__N_116itanium_demangle12OutputBuffer4growEm.exit_crit_edge.i5 ]
  %37 = phi ptr [ %33, %._ZN12_GLOBAL__N_116itanium_demangle12OutputBuffer4growEm.exit_crit_edge1.i ], [ %.pre.i7, %._ZN12_GLOBAL__N_116itanium_demangle12OutputBuffer4growEm.exit_crit_edge.i5 ]
  store i64 %.pre-phi.i, ptr %23, align 8, !tbaa !224
  %38 = getelementptr inbounds nuw i8, ptr %37, i64 %36
  store i8 40, ptr %38, align 1, !tbaa !210
  %39 = getelementptr inbounds nuw i8, ptr %0, i64 32
  %40 = load ptr, ptr %39, align 8, !tbaa !246
  %41 = load ptr, ptr %1, align 8, !tbaa !214
  %42 = getelementptr inbounds nuw i8, ptr %41, i64 16
  %43 = load ptr, ptr %42, align 8
  tail call void %43(ptr noundef nonnull align 8 dereferenceable(44) %1, ptr noundef nonnull align 8 dereferenceable(11) %40)
  %44 = getelementptr inbounds nuw i8, ptr %40, i64 9
  %45 = load i16, ptr %44, align 1
  %.mask3.i = and i16 %45, 192
  %.not.i10 = icmp eq i16 %.mask3.i, 64
  br i1 %.not.i10, label %_ZNK12_GLOBAL__N_116itanium_demangle4Node5printERNS0_12OutputBufferE.exit, label %46

46:                                               ; preds = %_ZN12_GLOBAL__N_116itanium_demangle12OutputBufferpLEc.exit
  %47 = load ptr, ptr %1, align 8, !tbaa !214
  %48 = getelementptr inbounds nuw i8, ptr %47, i64 24
  %49 = load ptr, ptr %48, align 8
  tail call void %49(ptr noundef nonnull align 8 dereferenceable(44) %1, ptr noundef nonnull align 8 dereferenceable(11) %40)
  br label %_ZNK12_GLOBAL__N_116itanium_demangle4Node5printERNS0_12OutputBufferE.exit

_ZNK12_GLOBAL__N_116itanium_demangle4Node5printERNS0_12OutputBufferE.exit: ; preds = %_ZN12_GLOBAL__N_116itanium_demangle12OutputBufferpLEc.exit, %46
  %50 = load i64, ptr %23, align 8, !tbaa !224
  %51 = add i64 %50, 1
  %52 = load i64, ptr %25, align 8, !tbaa !225
  %53 = icmp ugt i64 %51, %52
  br i1 %53, label %54, label %._ZN12_GLOBAL__N_116itanium_demangle12OutputBuffer4growEm.exit_crit_edge.i11

._ZN12_GLOBAL__N_116itanium_demangle12OutputBuffer4growEm.exit_crit_edge.i11: ; preds = %_ZNK12_GLOBAL__N_116itanium_demangle4Node5printERNS0_12OutputBufferE.exit
  %.phi.trans.insert.i12 = getelementptr inbounds nuw i8, ptr %1, i64 8
  %.pre.i13 = load ptr, ptr %.phi.trans.insert.i12, align 8, !tbaa !222
  br label %_ZN12_GLOBAL__N_116itanium_demangle12OutputBufferpLEc.exit20

54:                                               ; preds = %_ZNK12_GLOBAL__N_116itanium_demangle4Node5printERNS0_12OutputBufferE.exit
  %55 = add i64 %50, 993
  %56 = shl i64 %52, 1
  %spec.select.i.i16 = tail call i64 @llvm.umax.i64(i64 %56, i64 %55)
  store i64 %spec.select.i.i16, ptr %25, align 8, !tbaa !225
  %57 = getelementptr inbounds nuw i8, ptr %1, i64 8
  %58 = load ptr, ptr %57, align 8, !tbaa !222
  %59 = tail call ptr @realloc(ptr noundef %58, i64 noundef %spec.select.i.i16) #34
  store ptr %59, ptr %57, align 8, !tbaa !222
  %60 = icmp eq ptr %59, null
  br i1 %60, label %61, label %._ZN12_GLOBAL__N_116itanium_demangle12OutputBuffer4growEm.exit_crit_edge1.i17

._ZN12_GLOBAL__N_116itanium_demangle12OutputBuffer4growEm.exit_crit_edge1.i17: ; preds = %54
  %.pre2.i18 = load i64, ptr %23, align 8, !tbaa !224
  %.pre3.i19 = add i64 %.pre2.i18, 1
  br label %_ZN12_GLOBAL__N_116itanium_demangle12OutputBufferpLEc.exit20

61:                                               ; preds = %54
  tail call void @abort() #33
  unreachable

_ZN12_GLOBAL__N_116itanium_demangle12OutputBufferpLEc.exit20: ; preds = %._ZN12_GLOBAL__N_116itanium_demangle12OutputBuffer4growEm.exit_crit_edge.i11, %._ZN12_GLOBAL__N_116itanium_demangle12OutputBuffer4growEm.exit_crit_edge1.i17
  %.pre-phi.i15 = phi i64 [ %.pre3.i19, %._ZN12_GLOBAL__N_116itanium_demangle12OutputBuffer4growEm.exit_crit_edge1.i17 ], [ %51, %._ZN12_GLOBAL__N_116itanium_demangle12OutputBuffer4growEm.exit_crit_edge.i11 ]
  %62 = phi i64 [ %.pre2.i18, %._ZN12_GLOBAL__N_116itanium_demangle12OutputBuffer4growEm.exit_crit_edge1.i17 ], [ %50, %._ZN12_GLOBAL__N_116itanium_demangle12OutputBuffer4growEm.exit_crit_edge.i11 ]
  %63 = phi ptr [ %59, %._ZN12_GLOBAL__N_116itanium_demangle12OutputBuffer4growEm.exit_crit_edge1.i17 ], [ %.pre.i13, %._ZN12_GLOBAL__N_116itanium_demangle12OutputBuffer4growEm.exit_crit_edge.i11 ]
  store i64 %.pre-phi.i15, ptr %23, align 8, !tbaa !224
  %64 = getelementptr inbounds nuw i8, ptr %63, i64 %62
  store i8 41, ptr %64, align 1, !tbaa !210
  ret void
}